target datalayout = "e-m:e-p270:32:32-p271:32:32-p272:64:64-i64:64-i128:128-f80:128-n8:16:32:64-S128"
target triple = "x86_64-pc-linux-gnu"

%struct.Wlc_Ntk_t_ = type { ptr, ptr, %struct.Vec_Int_t_, %struct.Vec_Int_t_, %struct.Vec_Int_t_, %struct.Vec_Int_t_, %struct.Vec_Int_t_, %struct.Vec_Int_t_, ptr, ptr, ptr, [60 x i32], [60 x i32], i32, i32, i32, i32, i32, ptr, i32, i32, ptr, ptr, ptr, ptr, ptr, %struct.Vec_Int_t_, %struct.Vec_Int_t_, i32, %struct.Vec_Int_t_, %struct.Vec_Int_t_, %struct.Vec_Int_t_, %struct.Vec_Int_t_, %struct.Vec_Int_t_, %struct.Vec_Int_t_ }
%struct.Vec_Int_t_ = type { i32, i32, ptr }
%struct.Wlc_Obj_t_ = type { i16, i32, i32, i32, %union.anon }
%union.anon = type { [1 x ptr] }

@.str.5 = private unnamed_addr constant [2 x i8] c"\0A\00", align 1
@.str.24 = private unnamed_addr constant [11 x i8] c"Obj %6d : \00", align 1
@.str.25 = private unnamed_addr constant [14 x i8] c"Visit = %6d  \00", align 1
@.str.26 = private unnamed_addr constant [13 x i8] c"Pair = %6d  \00", align 1
@.str.27 = private unnamed_addr constant [8 x i8] c"%d(%d) \00", align 1

; Function Attrs: inlinehint nounwind uwtable
define internal ptr @Vec_IntAlloc(i32 noundef %0) #2 {
  %2 = alloca i32, align 4
  %3 = alloca ptr, align 8
  store i32 %0, ptr %2, align 4, !tbaa !8
  call void @llvm.lifetime.start.p0(i64 8, ptr %3) #12
  %4 = call noalias ptr @malloc(i64 noundef 16) #13
  store ptr %4, ptr %3, align 8, !tbaa !10
  %5 = load i32, ptr %2, align 4, !tbaa !8
  %6 = icmp sgt i32 %5, 0
  br i1 %6, label %7, label %11

7:                                                ; preds = %1
  %8 = load i32, ptr %2, align 4, !tbaa !8
  %9 = icmp slt i32 %8, 16
  br i1 %9, label %10, label %11

10:                                               ; preds = %7
  store i32 16, ptr %2, align 4, !tbaa !8
  br label %11

11:                                               ; preds = %10, %7, %1
  %12 = load ptr, ptr %3, align 8, !tbaa !10
  %13 = getelementptr inbounds nuw %struct.Vec_Int_t_, ptr %12, i32 0, i32 1
  store i32 0, ptr %13, align 4, !tbaa !31
  %14 = load i32, ptr %2, align 4, !tbaa !8
  %15 = load ptr, ptr %3, align 8, !tbaa !10
  %16 = getelementptr inbounds nuw %struct.Vec_Int_t_, ptr %15, i32 0, i32 0
  store i32 %14, ptr %16, align 8, !tbaa !32
  %17 = load ptr, ptr %3, align 8, !tbaa !10
  %18 = getelementptr inbounds nuw %struct.Vec_Int_t_, ptr %17, i32 0, i32 0
  %19 = load i32, ptr %18, align 8, !tbaa !32
  %20 = icmp ne i32 %19, 0
  br i1 %20, label %21, label %28

21:                                               ; preds = %11
  %22 = load ptr, ptr %3, align 8, !tbaa !10
  %23 = getelementptr inbounds nuw %struct.Vec_Int_t_, ptr %22, i32 0, i32 0
  %24 = load i32, ptr %23, align 8, !tbaa !32
  %25 = sext i32 %24 to i64
  %26 = mul i64 4, %25
  %27 = call noalias ptr @malloc(i64 noundef %26) #13
  br label %29

28:                                               ; preds = %11
  br label %29

29:                                               ; preds = %28, %21
  %30 = phi ptr [ %27, %21 ], [ null, %28 ]
  %31 = load ptr, ptr %3, align 8, !tbaa !10
  %32 = getelementptr inbounds nuw %struct.Vec_Int_t_, ptr %31, i32 0, i32 2
  store ptr %30, ptr %32, align 8, !tbaa !33
  %33 = load ptr, ptr %3, align 8, !tbaa !10
  call void @llvm.lifetime.end.p0(i64 8, ptr %3) #12
  ret ptr %33
}

; Function Attrs: inlinehint nounwind uwtable
define internal void @Vec_IntFree(ptr noundef %0) #2 {
  %2 = alloca ptr, align 8
  store ptr %0, ptr %2, align 8, !tbaa !10
  %3 = load ptr, ptr %2, align 8, !tbaa !10
  %4 = getelementptr inbounds nuw %struct.Vec_Int_t_, ptr %3, i32 0, i32 2
  %5 = load ptr, ptr %4, align 8, !tbaa !33
  %6 = icmp ne ptr %5, null
  br i1 %6, label %7, label %13

7:                                                ; preds = %1
  %8 = load ptr, ptr %2, align 8, !tbaa !10
  %9 = getelementptr inbounds nuw %struct.Vec_Int_t_, ptr %8, i32 0, i32 2
  %10 = load ptr, ptr %9, align 8, !tbaa !33
  call void @free(ptr noundef %10) #12
  %11 = load ptr, ptr %2, align 8, !tbaa !10
  %12 = getelementptr inbounds nuw %struct.Vec_Int_t_, ptr %11, i32 0, i32 2
  store ptr null, ptr %12, align 8, !tbaa !33
  br label %14

13:                                               ; preds = %1
  br label %14

14:                                               ; preds = %13, %7
  %15 = load ptr, ptr %2, align 8, !tbaa !10
  %16 = icmp ne ptr %15, null
  br i1 %16, label %17, label %19

17:                                               ; preds = %14
  %18 = load ptr, ptr %2, align 8, !tbaa !10
  call void @free(ptr noundef %18) #12
  store ptr null, ptr %2, align 8, !tbaa !10
  br label %20

19:                                               ; preds = %14
  br label %20

20:                                               ; preds = %19, %17
  ret void
}

; Function Attrs: inlinehint nounwind uwtable
define internal i32 @Wlc_ObjId(ptr noundef %0, ptr noundef %1) #2 {
  %3 = alloca ptr, align 8
  %4 = alloca ptr, align 8
  store ptr %0, ptr %3, align 8, !tbaa !3
  store ptr %1, ptr %4, align 8, !tbaa !12
  %5 = load ptr, ptr %4, align 8, !tbaa !12
  %6 = load ptr, ptr %3, align 8, !tbaa !3
  %7 = getelementptr inbounds nuw %struct.Wlc_Ntk_t_, ptr %6, i32 0, i32 18
  %8 = load ptr, ptr %7, align 8, !tbaa !20
  %9 = ptrtoint ptr %5 to i64
  %10 = ptrtoint ptr %8 to i64
  %11 = sub i64 %9, %10
  %12 = sdiv exact i64 %11, 24
  %13 = trunc i64 %12 to i32
  ret i32 %13
}

; Function Attrs: inlinehint nounwind uwtable
define internal void @Vec_IntClear(ptr noundef %0) #2 {
  %2 = alloca ptr, align 8
  store ptr %0, ptr %2, align 8, !tbaa !10
  %3 = load ptr, ptr %2, align 8, !tbaa !10
  %4 = getelementptr inbounds nuw %struct.Vec_Int_t_, ptr %3, i32 0, i32 1
  store i32 0, ptr %4, align 4, !tbaa !31
  ret void
}

; Function Attrs: inlinehint nounwind uwtable
define internal i32 @Wlc_ObjType(ptr noundef %0) #2 {
  %2 = alloca ptr, align 8
  store ptr %0, ptr %2, align 8, !tbaa !12
  %3 = load ptr, ptr %2, align 8, !tbaa !12
  %4 = load i16, ptr %3, align 8
  %5 = and i16 %4, 63
  %6 = zext i16 %5 to i32
  ret i32 %6
}

; Function Attrs: inlinehint nounwind uwtable
define internal ptr @Wlc_NtkObj(ptr noundef %0, i32 noundef %1) #2 {
  %3 = alloca ptr, align 8
  %4 = alloca i32, align 4
  store ptr %0, ptr %3, align 8, !tbaa !3
  store i32 %1, ptr %4, align 4, !tbaa !8
  %5 = load ptr, ptr %3, align 8, !tbaa !3
  %6 = getelementptr inbounds nuw %struct.Wlc_Ntk_t_, ptr %5, i32 0, i32 18
  %7 = load ptr, ptr %6, align 8, !tbaa !20
  %8 = load i32, ptr %4, align 4, !tbaa !8
  %9 = sext i32 %8 to i64
  %10 = getelementptr inbounds %struct.Wlc_Obj_t_, ptr %7, i64 %9
  ret ptr %10
}

; Function Attrs: inlinehint nounwind uwtable
define internal i32 @Vec_IntEntry(ptr noundef %0, i32 noundef %1) #2 {
  %3 = alloca ptr, align 8
  %4 = alloca i32, align 4
  store ptr %0, ptr %3, align 8, !tbaa !10
  store i32 %1, ptr %4, align 4, !tbaa !8
  %5 = load ptr, ptr %3, align 8, !tbaa !10
  %6 = getelementptr inbounds nuw %struct.Vec_Int_t_, ptr %5, i32 0, i32 2
  %7 = load ptr, ptr %6, align 8, !tbaa !33
  %8 = load i32, ptr %4, align 4, !tbaa !8
  %9 = sext i32 %8 to i64
  %10 = getelementptr inbounds i32, ptr %7, i64 %9
  %11 = load i32, ptr %10, align 4, !tbaa !8
  ret i32 %11
}

; Function Attrs: inlinehint nounwind uwtable
define internal i32 @Vec_IntSize(ptr noundef %0) #2 {
  %2 = alloca ptr, align 8
  store ptr %0, ptr %2, align 8, !tbaa !10
  %3 = load ptr, ptr %2, align 8, !tbaa !10
  %4 = getelementptr inbounds nuw %struct.Vec_Int_t_, ptr %3, i32 0, i32 1
  %5 = load i32, ptr %4, align 4, !tbaa !31
  ret i32 %5
}

; Function Attrs: inlinehint nounwind uwtable
define internal ptr @Vec_IntStart(i32 noundef %0) #2 {
  %2 = alloca i32, align 4
  %3 = alloca ptr, align 8
  store i32 %0, ptr %2, align 4, !tbaa !8
  call void @llvm.lifetime.start.p0(i64 8, ptr %3) #12
  %4 = load i32, ptr %2, align 4, !tbaa !8
  %5 = call ptr @Vec_IntAlloc(i32 noundef %4)
  store ptr %5, ptr %3, align 8, !tbaa !10
  %6 = load i32, ptr %2, align 4, !tbaa !8
  %7 = load ptr, ptr %3, align 8, !tbaa !10
  %8 = getelementptr inbounds nuw %struct.Vec_Int_t_, ptr %7, i32 0, i32 1
  store i32 %6, ptr %8, align 4, !tbaa !31
  %9 = load ptr, ptr %3, align 8, !tbaa !10
  %10 = getelementptr inbounds nuw %struct.Vec_Int_t_, ptr %9, i32 0, i32 2
  %11 = load ptr, ptr %10, align 8, !tbaa !33
  %12 = icmp ne ptr %11, null
  br i1 %12, label %13, label %20

13:                                               ; preds = %1
  %14 = load ptr, ptr %3, align 8, !tbaa !10
  %15 = getelementptr inbounds nuw %struct.Vec_Int_t_, ptr %14, i32 0, i32 2
  %16 = load ptr, ptr %15, align 8, !tbaa !33
  %17 = load i32, ptr %2, align 4, !tbaa !8
  %18 = sext i32 %17 to i64
  %19 = mul i64 4, %18
  call void @llvm.memset.p0.i64(ptr align 4 %16, i8 0, i64 %19, i1 false)
  br label %20

20:                                               ; preds = %13, %1
  %21 = load ptr, ptr %3, align 8, !tbaa !10
  call void @llvm.lifetime.end.p0(i64 8, ptr %3) #12
  ret ptr %21
}

; Function Attrs: nounwind uwtable
define void @Wlc_NtkExploreMem2(ptr noundef %0, i32 noundef %1) #0 {
  %3 = alloca ptr, align 8
  %4 = alloca i32, align 4
  %5 = alloca ptr, align 8
  %6 = alloca i32, align 4
  %7 = alloca i32, align 4
  %8 = alloca i32, align 4
  %9 = alloca i32, align 4
  %10 = alloca i32, align 4
  %11 = alloca ptr, align 8
  %12 = alloca ptr, align 8
  store ptr %0, ptr %3, align 8, !tbaa !3
  store i32 %1, ptr %4, align 4, !tbaa !8
  call void @llvm.lifetime.start.p0(i64 8, ptr %5) #12
  call void @llvm.lifetime.start.p0(i64 4, ptr %6) #12
  call void @llvm.lifetime.start.p0(i64 4, ptr %7) #12
  call void @llvm.lifetime.start.p0(i64 4, ptr %8) #12
  call void @llvm.lifetime.start.p0(i64 4, ptr %9) #12
  call void @llvm.lifetime.start.p0(i64 4, ptr %10) #12
  call void @llvm.lifetime.start.p0(i64 8, ptr %11) #12
  %13 = call ptr @Vec_IntStart(i32 noundef 1000)
  store ptr %13, ptr %11, align 8, !tbaa !10
  call void @llvm.lifetime.start.p0(i64 8, ptr %12) #12
  %14 = load ptr, ptr %3, align 8, !tbaa !3
  %15 = call ptr @Wlc_NtkCollectMemory(ptr noundef %14, i32 noundef 1)
  store ptr %15, ptr %12, align 8, !tbaa !10
  %16 = load ptr, ptr %3, align 8, !tbaa !3
  call void @Wlc_NtkCleanMarks(ptr noundef %16)
  store i32 0, ptr %6, align 4, !tbaa !8
  br label %17

17:                                               ; preds = %35, %2
  %18 = load i32, ptr %6, align 4, !tbaa !8
  %19 = load ptr, ptr %12, align 8, !tbaa !10
  %20 = call i32 @Vec_IntSize(ptr noundef %19)
  %21 = icmp slt i32 %18, %20
  br i1 %21, label %22, label %28

22:                                               ; preds = %17
  %23 = load ptr, ptr %3, align 8, !tbaa !3
  %24 = load ptr, ptr %12, align 8, !tbaa !10
  %25 = load i32, ptr %6, align 4, !tbaa !8
  %26 = call i32 @Vec_IntEntry(ptr noundef %24, i32 noundef %25)
  %27 = call ptr @Wlc_NtkObj(ptr noundef %23, i32 noundef %26)
  store ptr %27, ptr %5, align 8, !tbaa !12
  br label %28

28:                                               ; preds = %22, %17
  %29 = phi i1 [ false, %17 ], [ true, %22 ]
  br i1 %29, label %30, label %38

30:                                               ; preds = %28
  %31 = load ptr, ptr %5, align 8, !tbaa !12
  %32 = load i16, ptr %31, align 8
  %33 = and i16 %32, -129
  %34 = or i16 %33, 128
  store i16 %34, ptr %31, align 8
  br label %35

35:                                               ; preds = %30
  %36 = load i32, ptr %6, align 4, !tbaa !8
  %37 = add nsw i32 %36, 1
  store i32 %37, ptr %6, align 4, !tbaa !8
  br label %17, !llvm.loop !161

38:                                               ; preds = %28
  store i32 0, ptr %6, align 4, !tbaa !8
  br label %39

39:                                               ; preds = %106, %38
  %40 = load i32, ptr %6, align 4, !tbaa !8
  %41 = load ptr, ptr %12, align 8, !tbaa !10
  %42 = call i32 @Vec_IntSize(ptr noundef %41)
  %43 = icmp slt i32 %40, %42
  br i1 %43, label %44, label %50

44:                                               ; preds = %39
  %45 = load ptr, ptr %3, align 8, !tbaa !3
  %46 = load ptr, ptr %12, align 8, !tbaa !10
  %47 = load i32, ptr %6, align 4, !tbaa !8
  %48 = call i32 @Vec_IntEntry(ptr noundef %46, i32 noundef %47)
  %49 = call ptr @Wlc_NtkObj(ptr noundef %45, i32 noundef %48)
  store ptr %49, ptr %5, align 8, !tbaa !12
  br label %50

50:                                               ; preds = %44, %39
  %51 = phi i1 [ false, %39 ], [ true, %44 ]
  br i1 %51, label %52, label %109

52:                                               ; preds = %50
  %53 = load ptr, ptr %5, align 8, !tbaa !12
  %54 = call i32 @Wlc_ObjType(ptr noundef %53)
  %55 = icmp ne i32 %54, 54
  br i1 %55, label %56, label %57

56:                                               ; preds = %52
  br label %106

57:                                               ; preds = %52
  %58 = load ptr, ptr %11, align 8, !tbaa !10
  call void @Vec_IntClear(ptr noundef %58)
  %59 = load ptr, ptr %3, align 8, !tbaa !3
  %60 = load ptr, ptr %5, align 8, !tbaa !12
  %61 = load ptr, ptr %11, align 8, !tbaa !10
  %62 = load i32, ptr %4, align 4, !tbaa !8
  %63 = call i32 @Wlc_NtkExploreMem2_rec(ptr noundef %59, ptr noundef %60, ptr noundef %61, i32 noundef %62)
  store i32 %63, ptr %10, align 4, !tbaa !8
  %64 = load ptr, ptr %3, align 8, !tbaa !3
  %65 = load ptr, ptr %5, align 8, !tbaa !12
  %66 = call i32 @Wlc_ObjId(ptr noundef %64, ptr noundef %65)
  %67 = call i32 (ptr, ...) @printf(ptr noundef @.str.24, i32 noundef %66)
  %68 = load i32, ptr %10, align 4, !tbaa !8
  %69 = call i32 (ptr, ...) @printf(ptr noundef @.str.25, i32 noundef %68)
  %70 = load ptr, ptr %11, align 8, !tbaa !10
  %71 = call i32 @Vec_IntSize(ptr noundef %70)
  %72 = sdiv i32 %71, 2
  %73 = call i32 (ptr, ...) @printf(ptr noundef @.str.26, i32 noundef %72)
  %74 = load ptr, ptr %11, align 8, !tbaa !10
  %75 = call i32 @Vec_IntSize(ptr noundef %74)
  %76 = sdiv i32 %75, 2
  %77 = icmp slt i32 %76, 10
  br i1 %77, label %78, label %104

78:                                               ; preds = %57
  store i32 0, ptr %7, align 4, !tbaa !8
  br label %79

79:                                               ; preds = %100, %78
  %80 = load i32, ptr %7, align 4, !tbaa !8
  %81 = add nsw i32 %80, 1
  %82 = load ptr, ptr %11, align 8, !tbaa !10
  %83 = call i32 @Vec_IntSize(ptr noundef %82)
  %84 = icmp slt i32 %81, %83
  br i1 %84, label %85, label %94

85:                                               ; preds = %79
  %86 = load ptr, ptr %11, align 8, !tbaa !10
  %87 = load i32, ptr %7, align 4, !tbaa !8
  %88 = call i32 @Vec_IntEntry(ptr noundef %86, i32 noundef %87)
  store i32 %88, ptr %8, align 4, !tbaa !8
  br i1 true, label %89, label %94

89:                                               ; preds = %85
  %90 = load ptr, ptr %11, align 8, !tbaa !10
  %91 = load i32, ptr %7, align 4, !tbaa !8
  %92 = add nsw i32 %91, 1
  %93 = call i32 @Vec_IntEntry(ptr noundef %90, i32 noundef %92)
  store i32 %93, ptr %9, align 4, !tbaa !8
  br label %94

94:                                               ; preds = %89, %85, %79
  %95 = phi i1 [ false, %85 ], [ false, %79 ], [ true, %89 ]
  br i1 %95, label %96, label %103

96:                                               ; preds = %94
  %97 = load i32, ptr %8, align 4, !tbaa !8
  %98 = load i32, ptr %9, align 4, !tbaa !8
  %99 = call i32 (ptr, ...) @printf(ptr noundef @.str.27, i32 noundef %97, i32 noundef %98)
  br label %100

100:                                              ; preds = %96
  %101 = load i32, ptr %7, align 4, !tbaa !8
  %102 = add nsw i32 %101, 2
  store i32 %102, ptr %7, align 4, !tbaa !8
  br label %79, !llvm.loop !162

103:                                              ; preds = %94
  br label %104

104:                                              ; preds = %103, %57
  %105 = call i32 (ptr, ...) @printf(ptr noundef @.str.5)
  br label %106

106:                                              ; preds = %104, %56
  %107 = load i32, ptr %6, align 4, !tbaa !8
  %108 = add nsw i32 %107, 1
  store i32 %108, ptr %6, align 4, !tbaa !8
  br label %39, !llvm.loop !163

109:                                              ; preds = %50
  %110 = load ptr, ptr %12, align 8, !tbaa !10
  call void @Vec_IntFree(ptr noundef %110)
  %111 = load ptr, ptr %11, align 8, !tbaa !10
  call void @Vec_IntFree(ptr noundef %111)
  %112 = load ptr, ptr %3, align 8, !tbaa !3
  call void @Wlc_NtkCleanMarks(ptr noundef %112)
  call void @llvm.lifetime.end.p0(i64 8, ptr %12) #12
  call void @llvm.lifetime.end.p0(i64 8, ptr %11) #12
  call void @llvm.lifetime.end.p0(i64 4, ptr %10) #12
  call void @llvm.lifetime.end.p0(i64 4, ptr %9) #12
  call void @llvm.lifetime.end.p0(i64 4, ptr %8) #12
  call void @llvm.lifetime.end.p0(i64 4, ptr %7) #12
  call void @llvm.lifetime.end.p0(i64 4, ptr %6) #12
  call void @llvm.lifetime.end.p0(i64 8, ptr %5) #12
  ret void
}