; Function Attrs: nounwind uwtable
define void @Wlc_NtkExploreMem2(ptr noundef %0, i32 noundef %1) local_unnamed_addr #0 {
Vec_IntStart.exit:
  %2 = tail call noalias dereferenceable_or_null(16) ptr @malloc(i64 noundef 16) #25
  %3 = getelementptr inbounds nuw i8, ptr %2, i64 4
  store i32 1000, ptr %2, align 8, !tbaa !25
  %calloc = tail call dereferenceable_or_null(4000) ptr @calloc(i64 1, i64 4000)
  %4 = getelementptr inbounds nuw i8, ptr %2, i64 8
  store ptr %calloc, ptr %4, align 8, !tbaa !3
  %5 = tail call ptr @Wlc_NtkCollectMemory(ptr noundef %0, i32 noundef 1)
  tail call void @Wlc_NtkCleanMarks(ptr noundef %0) #26
  %6 = getelementptr i8, ptr %5, i64 4
  %.val53 = load i32, ptr %6, align 4, !tbaa !26
  %7 = icmp sgt i32 %.val53, 0
  %8 = getelementptr i8, ptr %5, i64 8
  %.val45 = load ptr, ptr %8, align 8, !tbaa !3
  br i1 %7, label %.lr.ph, label %.critedge2

.lr.ph:                                           ; preds = %Vec_IntStart.exit
  %9 = getelementptr i8, ptr %0, i64 640
  %wide.trip.count = zext nneg i32 %.val53 to i64
  br label %12

.lr.ph62:                                         ; preds = %12
  %10 = getelementptr i8, ptr %5, i64 8
  %.val44 = load ptr, ptr %10, align 8, !tbaa !3
  %11 = getelementptr i8, ptr %0, i64 640
  %wide.trip.count70 = zext nneg i32 %.val53 to i64
  br label %19

12:                                               ; preds = %.lr.ph, %12
  %indvars.iv = phi i64 [ 0, %.lr.ph ], [ %indvars.iv.next, %12 ]
  %13 = getelementptr inbounds nuw i32, ptr %.val45, i64 %indvars.iv
  %14 = load i32, ptr %13, align 4, !tbaa !10
  %.val47 = load ptr, ptr %9, align 8, !tbaa !11
  %15 = sext i32 %14 to i64
  %16 = getelementptr inbounds %struct.Wlc_Obj_t_, ptr %.val47, i64 %15
  %17 = load i16, ptr %16, align 8
  %18 = or i16 %17, 128
  store i16 %18, ptr %16, align 8
  %indvars.iv.next = add nuw nsw i64 %indvars.iv, 1
  %exitcond.not = icmp eq i64 %indvars.iv.next, %wide.trip.count
  br i1 %exitcond.not, label %.lr.ph62, label %12, !llvm.loop !151

19:                                               ; preds = %.lr.ph62, %.critedge
  %indvars.iv67 = phi i64 [ 0, %.lr.ph62 ], [ %indvars.iv.next68, %.critedge ]
  %20 = getelementptr inbounds nuw i32, ptr %.val44, i64 %indvars.iv67
  %21 = load i32, ptr %20, align 4, !tbaa !10
  %.val46 = load ptr, ptr %11, align 8, !tbaa !11
  %22 = sext i32 %21 to i64
  %23 = getelementptr inbounds %struct.Wlc_Obj_t_, ptr %.val46, i64 %22
  %.val54 = load i16, ptr %23, align 8
  %24 = and i16 %.val54, 63
  %.not = icmp eq i16 %24, 54
  br i1 %.not, label %25, label %.critedge

25:                                               ; preds = %19
  store i32 0, ptr %3, align 4, !tbaa !26
  %26 = tail call i32 @Wlc_NtkExploreMem2_rec(ptr noundef nonnull %0, ptr noundef nonnull %23, ptr noundef nonnull %2, i32 noundef %1)
  %.val48 = load ptr, ptr %11, align 8, !tbaa !11
  %27 = ptrtoint ptr %23 to i64
  %28 = ptrtoint ptr %.val48 to i64
  %29 = sub i64 %27, %28
  %30 = sdiv exact i64 %29, 24
  %31 = trunc i64 %30 to i32
  %32 = tail call i32 (ptr, ...) @printf(ptr noundef nonnull dereferenceable(1) @.str.24, i32 noundef %31)
  %33 = tail call i32 (ptr, ...) @printf(ptr noundef nonnull dereferenceable(1) @.str.25, i32 noundef %26)
  %.val51 = load i32, ptr %3, align 4, !tbaa !26
  %34 = sdiv i32 %.val51, 2
  %35 = tail call i32 (ptr, ...) @printf(ptr noundef nonnull dereferenceable(1) @.str.26, i32 noundef %34)
  %36 = add i32 %.val51, -2
  %or.cond = icmp ult i32 %36, 18
  br i1 %or.cond, label %.lr.ph60, label %.critedge4

.lr.ph60:                                         ; preds = %25
  %.val43 = load ptr, ptr %4, align 8, !tbaa !3
  br label %37

37:                                               ; preds = %.lr.ph60, %37
  %indvars.iv64 = phi i64 [ 0, %.lr.ph60 ], [ %indvars.iv.next65, %37 ]
  %38 = or disjoint i64 %indvars.iv64, 1
  %39 = getelementptr inbounds nuw i32, ptr %.val43, i64 %indvars.iv64
  %40 = load i32, ptr %39, align 4, !tbaa !10
  %41 = getelementptr inbounds nuw i32, ptr %.val43, i64 %38
  %42 = load i32, ptr %41, align 4, !tbaa !10
  %43 = tail call i32 (ptr, ...) @printf(ptr noundef nonnull dereferenceable(1) @.str.27, i32 noundef %40, i32 noundef %42)
  %indvars.iv.next65 = add nuw nsw i64 %indvars.iv64, 2
  %44 = trunc i64 %indvars.iv.next65 to i32
  %45 = or disjoint i32 %44, 1
  %46 = icmp slt i32 %45, %.val51
  br i1 %46, label %37, label %.critedge4, !llvm.loop !152

.critedge4:                                       ; preds = %37, %25
  %putchar = tail call i32 @putchar(i32 10)
  br label %.critedge

.critedge:                                        ; preds = %19, %.critedge4
  %indvars.iv.next68 = add nuw nsw i64 %indvars.iv67, 1
  %exitcond71.not = icmp eq i64 %indvars.iv.next68, %wide.trip.count70
  br i1 %exitcond71.not, label %.critedge2, label %19, !llvm.loop !153

.critedge2:                                       ; preds = %.critedge, %Vec_IntStart.exit
  %47 = phi ptr [ %.val45, %Vec_IntStart.exit ], [ %.val44, %.critedge ]
  %.not.i55 = icmp eq ptr %47, null
  br i1 %.not.i55, label %Vec_IntFree.exit, label %48

48:                                               ; preds = %.critedge2
  tail call void @free(ptr noundef nonnull %47) #26
  br label %Vec_IntFree.exit

Vec_IntFree.exit:                                 ; preds = %.critedge2, %48
  tail call void @free(ptr noundef nonnull %5) #26
  %49 = load ptr, ptr %4, align 8, !tbaa !3
  %.not.i56 = icmp eq ptr %49, null
  br i1 %.not.i56, label %Vec_IntFree.exit57, label %50

50:                                               ; preds = %Vec_IntFree.exit
  tail call void @free(ptr noundef nonnull %49) #26
  br label %Vec_IntFree.exit57

Vec_IntFree.exit57:                               ; preds = %Vec_IntFree.exit, %50
  tail call void @free(ptr noundef nonnull %2) #26
  tail call void @Wlc_NtkCleanMarks(ptr noundef %0) #26
  ret void
}